target datalayout = "e-m:e-p270:32:32-p271:32:32-p272:64:64-i64:64-i128:128-f80:128-n8:16:32:64-S128"
target triple = "x86_64-pc-linux-gnu"

%struct.H5G_link_table_t = type { i64, ptr }
%struct.H5G_iter_bt_t = type { ptr, i64 }
%struct.H5O_mesg_operator_t = type { i32, %union.anon.0 }
%union.anon.0 = type { ptr }
%struct.H5O_linfo_t = type { i8, i8, i64, i64, i64, i64, i64 }

@H5G_init_g = external global i8, align 1
@H5_libterm_g = external global i8, align 1
@.str = private unnamed_addr constant [104 x i8] c"generated/home/dtcxzyw/WorkSpace/Projects/compilers/llvm-opt-benchmark/bench/hdf5/hdf5/src/H5Gcompact.c\00", align 1
@H5E_SYM_g = external global i64, align 8
@H5E_NOTFOUND_g = external global i64, align 8
@.str.7 = private unnamed_addr constant [35 x i8] c"error iterating over link messages\00", align 1
@__func__.H5G__compact_build_table = private unnamed_addr constant [25 x i8] c"H5G__compact_build_table\00", align 1
@H5E_RESOURCE_g = external global i64, align 8
@H5E_NOSPACE_g = external global i64, align 8
@.str.9 = private unnamed_addr constant [25 x i8] c"memory allocation failed\00", align 1
@H5E_CANTSORT_g = external global i64, align 8
@.str.10 = private unnamed_addr constant [28 x i8] c"error sorting link messages\00", align 1

; Function Attrs: nounwind uwtable
define internal i32 @H5G__compact_build_table(ptr noundef %0, ptr noundef %1, i32 noundef %2, i32 noundef %3, ptr noundef %4) #0 {
  %6 = alloca i32, align 4
  %7 = alloca ptr, align 8
  %8 = alloca ptr, align 8
  %9 = alloca i32, align 4
  %10 = alloca i32, align 4
  %11 = alloca ptr, align 8
  %12 = alloca i32, align 4
  %13 = alloca i8, align 1
  %14 = alloca %struct.H5G_iter_bt_t, align 8
  %15 = alloca %struct.H5O_mesg_operator_t, align 8
  %16 = alloca i32, align 4
  store ptr %0, ptr %7, align 8, !tbaa !3
  store ptr %1, ptr %8, align 8, !tbaa !18
  store i32 %2, ptr %9, align 4, !tbaa !10
  store i32 %3, ptr %10, align 4, !tbaa !10
  store ptr %4, ptr %11, align 8, !tbaa !30
  call void @llvm.lifetime.start.p0(i64 4, ptr %12) #8
  store i32 0, ptr %12, align 4, !tbaa !10
  call void @llvm.lifetime.start.p0(i64 1, ptr %13) #8
  store i8 0, ptr %13, align 1, !tbaa !12
  %17 = load i8, ptr @H5G_init_g, align 1, !tbaa !12, !range !14, !noundef !15
  %18 = trunc i8 %17 to i1
  br i1 %18, label %23, label %19

19:                                               ; preds = %5
  %20 = load i8, ptr @H5_libterm_g, align 1, !tbaa !12, !range !14, !noundef !15
  %21 = trunc i8 %20 to i1
  %22 = xor i1 %21, true
  br label %23

23:                                               ; preds = %19, %5
  %24 = phi i1 [ true, %5 ], [ %22, %19 ]
  %25 = xor i1 %24, true
  %26 = xor i1 %25, true
  %27 = zext i1 %26 to i32
  %28 = sext i32 %27 to i64
  %29 = call i64 @llvm.expect.i64(i64 %28, i64 1)
  %30 = icmp ne i64 %29, 0
  br i1 %30, label %31, label %131

31:                                               ; preds = %23
  %32 = load ptr, ptr %8, align 8, !tbaa !18
  %33 = getelementptr inbounds nuw %struct.H5O_linfo_t, ptr %32, i32 0, i32 4
  %34 = load i64, ptr %33, align 8, !tbaa !31
  %35 = load ptr, ptr %11, align 8, !tbaa !30
  %36 = getelementptr inbounds nuw %struct.H5G_link_table_t, ptr %35, i32 0, i32 0
  store i64 %34, ptr %36, align 8, !tbaa !24
  %37 = load ptr, ptr %11, align 8, !tbaa !30
  %38 = getelementptr inbounds nuw %struct.H5G_link_table_t, ptr %37, i32 0, i32 0
  %39 = load i64, ptr %38, align 8, !tbaa !24
  %40 = icmp ugt i64 %39, 0
  br i1 %40, label %41, label %126

41:                                               ; preds = %31
  call void @llvm.lifetime.start.p0(i64 16, ptr %14) #8
  call void @llvm.lifetime.start.p0(i64 16, ptr %15) #8
  %42 = load ptr, ptr %11, align 8, !tbaa !30
  %43 = getelementptr inbounds nuw %struct.H5G_link_table_t, ptr %42, i32 0, i32 0
  %44 = load i64, ptr %43, align 8, !tbaa !24
  %45 = mul i64 48, %44
  %46 = call noalias ptr @calloc(i64 noundef 1, i64 noundef %45) #10
  %47 = load ptr, ptr %11, align 8, !tbaa !30
  %48 = getelementptr inbounds nuw %struct.H5G_link_table_t, ptr %47, i32 0, i32 1
  store ptr %46, ptr %48, align 8, !tbaa !26
  %49 = icmp eq ptr %46, null
  br i1 %49, label %50, label %69

50:                                               ; preds = %41
  br label %51

51:                                               ; preds = %50
  br label %52

52:                                               ; preds = %51
  br label %53

53:                                               ; preds = %52
  %54 = load i64, ptr @H5E_RESOURCE_g, align 8, !tbaa !16
  %55 = load i64, ptr @H5E_NOSPACE_g, align 8, !tbaa !16
  %56 = call i32 (ptr, ptr, i32, i64, i64, ptr, ...) @H5E_printf_stack(ptr noundef @.str, ptr noundef @__func__.H5G__compact_build_table, i32 noundef 133, i64 noundef %54, i64 noundef %55, ptr noundef @.str.9)
  br label %57

57:                                               ; preds = %53
  br label %58

58:                                               ; preds = %57
  store i8 1, ptr %13, align 1, !tbaa !12
  %59 = load i8, ptr %13, align 1, !tbaa !12, !range !14, !noundef !15
  %60 = trunc i8 %59 to i1
  %61 = zext i1 %60 to i8
  store i8 %61, ptr %13, align 1, !tbaa !12
  br label %62

62:                                               ; preds = %58
  br label %63

63:                                               ; preds = %62
  br label %64

64:                                               ; preds = %63
  store i32 -1, ptr %12, align 4, !tbaa !10
  store i32 10, ptr %16, align 4
  br label %123

65:                                               ; No predecessors!
  br label %66

66:                                               ; preds = %65
  br label %67

67:                                               ; preds = %66
  br label %68

68:                                               ; preds = %67
  br label %69

69:                                               ; preds = %68, %41
  %70 = load ptr, ptr %11, align 8, !tbaa !30
  %71 = getelementptr inbounds nuw %struct.H5G_iter_bt_t, ptr %14, i32 0, i32 0
  store ptr %70, ptr %71, align 8, !tbaa !33
  %72 = getelementptr inbounds nuw %struct.H5G_iter_bt_t, ptr %14, i32 0, i32 1
  store i64 0, ptr %72, align 8, !tbaa !35
  %73 = getelementptr inbounds nuw %struct.H5O_mesg_operator_t, ptr %15, i32 0, i32 0
  store i32 0, ptr %73, align 8, !tbaa !36
  %74 = getelementptr inbounds nuw %struct.H5O_mesg_operator_t, ptr %15, i32 0, i32 1
  store ptr @H5G__compact_build_table_cb, ptr %74, align 8, !tbaa !29
  %75 = load ptr, ptr %7, align 8, !tbaa !3
  %76 = call i32 @H5O_msg_iterate(ptr noundef %75, i32 noundef 6, ptr noundef %15, ptr noundef %14)
  %77 = icmp slt i32 %76, 0
  br i1 %77, label %78, label %97

78:                                               ; preds = %69
  br label %79

79:                                               ; preds = %78
  br label %80

80:                                               ; preds = %79
  br label %81

81:                                               ; preds = %80
  %82 = load i64, ptr @H5E_SYM_g, align 8, !tbaa !16
  %83 = load i64, ptr @H5E_NOTFOUND_g, align 8, !tbaa !16
  %84 = call i32 (ptr, ptr, i32, i64, i64, ptr, ...) @H5E_printf_stack(ptr noundef @.str, ptr noundef @__func__.H5G__compact_build_table, i32 noundef 143, i64 noundef %82, i64 noundef %83, ptr noundef @.str.7)
  br label %85

85:                                               ; preds = %81
  br label %86

86:                                               ; preds = %85
  store i8 1, ptr %13, align 1, !tbaa !12
  %87 = load i8, ptr %13, align 1, !tbaa !12, !range !14, !noundef !15
  %88 = trunc i8 %87 to i1
  %89 = zext i1 %88 to i8
  store i8 %89, ptr %13, align 1, !tbaa !12
  br label %90

90:                                               ; preds = %86
  br label %91

91:                                               ; preds = %90
  br label %92

92:                                               ; preds = %91
  store i32 -1, ptr %12, align 4, !tbaa !10
  store i32 10, ptr %16, align 4
  br label %123

93:                                               ; No predecessors!
  br label %94

94:                                               ; preds = %93
  br label %95

95:                                               ; preds = %94
  br label %96

96:                                               ; preds = %95
  br label %97

97:                                               ; preds = %96, %69
  %98 = load ptr, ptr %11, align 8, !tbaa !30
  %99 = load i32, ptr %9, align 4, !tbaa !10
  %100 = load i32, ptr %10, align 4, !tbaa !10
  %101 = call i32 @H5G__link_sort_table(ptr noundef %98, i32 noundef %99, i32 noundef %100)
  %102 = icmp slt i32 %101, 0
  br i1 %102, label %103, label %122

103:                                              ; preds = %97
  br label %104

104:                                              ; preds = %103
  br label %105

105:                                              ; preds = %104
  br label %106

106:                                              ; preds = %105
  %107 = load i64, ptr @H5E_SYM_g, align 8, !tbaa !16
  %108 = load i64, ptr @H5E_CANTSORT_g, align 8, !tbaa !16
  %109 = call i32 (ptr, ptr, i32, i64, i64, ptr, ...) @H5E_printf_stack(ptr noundef @.str, ptr noundef @__func__.H5G__compact_build_table, i32 noundef 147, i64 noundef %107, i64 noundef %108, ptr noundef @.str.10)
  br label %110

110:                                              ; preds = %106
  br label %111

111:                                              ; preds = %110
  store i8 1, ptr %13, align 1, !tbaa !12
  %112 = load i8, ptr %13, align 1, !tbaa !12, !range !14, !noundef !15
  %113 = trunc i8 %112 to i1
  %114 = zext i1 %113 to i8
  store i8 %114, ptr %13, align 1, !tbaa !12
  br label %115

115:                                              ; preds = %111
  br label %116

116:                                              ; preds = %115
  br label %117

117:                                              ; preds = %116
  store i32 -1, ptr %12, align 4, !tbaa !10
  store i32 10, ptr %16, align 4
  br label %123

118:                                              ; No predecessors!
  br label %119

119:                                              ; preds = %118
  br label %120

120:                                              ; preds = %119
  br label %121

121:                                              ; preds = %120
  br label %122

122:                                              ; preds = %121, %97
  store i32 0, ptr %16, align 4
  br label %123

123:                                              ; preds = %117, %92, %64, %122
  call void @llvm.lifetime.end.p0(i64 16, ptr %15) #8
  call void @llvm.lifetime.end.p0(i64 16, ptr %14) #8
  %124 = load i32, ptr %16, align 4
  switch i32 %124, label %133 [
    i32 0, label %125
    i32 10, label %130
  ]

125:                                              ; preds = %123
  br label %129

126:                                              ; preds = %31
  %127 = load ptr, ptr %11, align 8, !tbaa !30
  %128 = getelementptr inbounds nuw %struct.H5G_link_table_t, ptr %127, i32 0, i32 1
  store ptr null, ptr %128, align 8, !tbaa !26
  br label %129

129:                                              ; preds = %126, %125
  br label %130

130:                                              ; preds = %129, %123
  br label %131

131:                                              ; preds = %130, %23
  %132 = load i32, ptr %12, align 4, !tbaa !10
  store i32 %132, ptr %6, align 4
  store i32 1, ptr %16, align 4
  br label %133

133:                                              ; preds = %131, %123
  call void @llvm.lifetime.end.p0(i64 1, ptr %13) #8
  call void @llvm.lifetime.end.p0(i64 4, ptr %12) #8
  %134 = load i32, ptr %6, align 4
  ret i32 %134
}