; Function Attrs: nounwind uwtable
define internal fastcc range(i32 -1, 1) i32 @H5G__compact_build_table(ptr noundef %0, ptr noundef readonly captures(none) %1, i32 noundef %2, i32 noundef %3, ptr noundef nonnull %4) unnamed_addr #0 {
  %6 = alloca %struct.H5G_iter_bt_t, align 8
  %7 = alloca %struct.H5O_mesg_operator_t, align 8
  %8 = load i8, ptr @H5G_init_g, align 1, !tbaa !3, !range !7, !noundef !8
  %9 = trunc nuw i8 %8 to i1
  %10 = load i8, ptr @H5_libterm_g, align 1, !range !7
  %11 = trunc nuw i8 %10 to i1
  %12 = xor i1 %11, true
  %13 = select i1 %9, i1 true, i1 %12
  br i1 %13, label %14, label %45, !prof !9

14:                                               ; preds = %5
  %15 = getelementptr inbounds nuw i8, ptr %1, i64 24
  %16 = load i64, ptr %15, align 8, !tbaa !22
  store i64 %16, ptr %4, align 8, !tbaa !12
  %.not = icmp eq i64 %16, 0
  br i1 %.not, label %43, label %17

17:                                               ; preds = %14
  call void @llvm.lifetime.start.p0(i64 16, ptr nonnull %6) #8
  call void @llvm.lifetime.start.p0(i64 16, ptr nonnull %7) #8
  %18 = mul i64 %16, 48
  %19 = tail call noalias ptr @calloc(i64 noundef 1, i64 noundef %18) #10
  %20 = getelementptr inbounds nuw i8, ptr %4, i64 8
  store ptr %19, ptr %20, align 8, !tbaa !16
  %21 = icmp eq ptr %19, null
  br i1 %21, label %22, label %26

22:                                               ; preds = %17
  %23 = load i64, ptr @H5E_RESOURCE_g, align 8, !tbaa !10
  %24 = load i64, ptr @H5E_NOSPACE_g, align 8, !tbaa !10
  %25 = tail call i32 (ptr, ptr, i32, i64, i64, ptr, ...) @H5E_printf_stack(ptr noundef nonnull @.str, ptr noundef nonnull @__func__.H5G__compact_build_table, i32 noundef 133, i64 noundef %23, i64 noundef %24, ptr noundef nonnull @.str.9) #8
  br label %42

26:                                               ; preds = %17
  store ptr %4, ptr %6, align 8, !tbaa !24
  %27 = getelementptr inbounds nuw i8, ptr %6, i64 8
  store i64 0, ptr %27, align 8, !tbaa !26
  store i32 0, ptr %7, align 8, !tbaa !27
  %28 = getelementptr inbounds nuw i8, ptr %7, i64 8
  store ptr @H5G__compact_build_table_cb, ptr %28, align 8, !tbaa !21
  %29 = call i32 @H5O_msg_iterate(ptr noundef %0, i32 noundef 6, ptr noundef nonnull %7, ptr noundef nonnull %6) #8
  %30 = icmp slt i32 %29, 0
  br i1 %30, label %31, label %35

31:                                               ; preds = %26
  %32 = load i64, ptr @H5E_SYM_g, align 8, !tbaa !10
  %33 = load i64, ptr @H5E_NOTFOUND_g, align 8, !tbaa !10
  %34 = call i32 (ptr, ptr, i32, i64, i64, ptr, ...) @H5E_printf_stack(ptr noundef nonnull @.str, ptr noundef nonnull @__func__.H5G__compact_build_table, i32 noundef 143, i64 noundef %32, i64 noundef %33, ptr noundef nonnull @.str.7) #8
  br label %42

35:                                               ; preds = %26
  %36 = call i32 @H5G__link_sort_table(ptr noundef nonnull %4, i32 noundef %2, i32 noundef %3) #8
  %37 = icmp slt i32 %36, 0
  br i1 %37, label %38, label %42

38:                                               ; preds = %35
  %39 = load i64, ptr @H5E_SYM_g, align 8, !tbaa !10
  %40 = load i64, ptr @H5E_CANTSORT_g, align 8, !tbaa !10
  %41 = call i32 (ptr, ptr, i32, i64, i64, ptr, ...) @H5E_printf_stack(ptr noundef nonnull @.str, ptr noundef nonnull @__func__.H5G__compact_build_table, i32 noundef 147, i64 noundef %39, i64 noundef %40, ptr noundef nonnull @.str.10) #8
  br label %42

42:                                               ; preds = %35, %38, %31, %22
  %.1 = phi i32 [ -1, %22 ], [ -1, %31 ], [ -1, %38 ], [ 0, %35 ]
  call void @llvm.lifetime.end.p0(i64 16, ptr nonnull %7) #8
  call void @llvm.lifetime.end.p0(i64 16, ptr nonnull %6) #8
  br label %45

43:                                               ; preds = %14
  %44 = getelementptr inbounds nuw i8, ptr %4, i64 8
  store ptr null, ptr %44, align 8, !tbaa !16
  br label %45

45:                                               ; preds = %42, %5, %43
  %.017 = phi i32 [ %.1, %42 ], [ 0, %43 ], [ 0, %5 ]
  ret i32 %.017
}